target datalayout = "e-m:e-p270:32:32-p271:32:32-p272:64:64-i64:64-i128:128-f80:128-n8:16:32:64-S128"
target triple = "x86_64-pc-linux-gnu"

%struct.location = type { i32, i32 }
%struct.block = type { ptr, ptr }
%struct.inst = type { ptr, ptr, i32, %struct.anon, ptr, %struct.location, ptr, ptr, i32, i32, i32, i32, %struct.block, %struct.block, ptr, i32 }
%struct.anon = type { i16, ptr, %struct.jv, ptr }
%struct.jv = type { i8, i8, i16, i32, %union.anon }
%union.anon = type { ptr }
%struct.opcode_description = type { i32, ptr, i32, i32, i32, i32 }

; Function Attrs: nounwind uwtable
define dso_local void @block_free(ptr %0, ptr %1) #0 {
  %3 = alloca %struct.block, align 8
  %4 = alloca ptr, align 8
  %5 = alloca ptr, align 8
  %6 = getelementptr inbounds nuw { ptr, ptr }, ptr %3, i32 0, i32 0
  store ptr %0, ptr %6, align 8
  %7 = getelementptr inbounds nuw { ptr, ptr }, ptr %3, i32 0, i32 1
  store ptr %1, ptr %7, align 8
  call void @llvm.lifetime.start.p0(i64 8, ptr %4) #7
  call void @llvm.lifetime.start.p0(i64 8, ptr %5) #7
  %8 = getelementptr inbounds nuw %struct.block, ptr %3, i32 0, i32 0
  %9 = load ptr, ptr %8, align 8, !tbaa !4
  store ptr %9, ptr %5, align 8, !tbaa !13
  br label %10

10:                                               ; preds = %19, %2
  %11 = load ptr, ptr %5, align 8, !tbaa !13
  %12 = icmp ne ptr %11, null
  br i1 %12, label %14, label %13

13:                                               ; preds = %10
  call void @llvm.lifetime.end.p0(i64 8, ptr %5) #7
  br label %21

14:                                               ; preds = %10
  %15 = load ptr, ptr %5, align 8, !tbaa !13
  %16 = getelementptr inbounds nuw %struct.inst, ptr %15, i32 0, i32 0
  %17 = load ptr, ptr %16, align 8, !tbaa !28
  store ptr %17, ptr %4, align 8, !tbaa !13
  %18 = load ptr, ptr %5, align 8, !tbaa !13
  call void @inst_free(ptr noundef %18)
  br label %19

19:                                               ; preds = %14
  %20 = load ptr, ptr %4, align 8, !tbaa !13
  store ptr %20, ptr %5, align 8, !tbaa !13
  br label %10, !llvm.loop !54

21:                                               ; preds = %13
  call void @llvm.lifetime.end.p0(i64 8, ptr %4) #7
  ret void
}

; Function Attrs: nounwind uwtable
define internal void @inst_free(ptr noundef %0) #0 {
  %2 = alloca ptr, align 8
  store ptr %0, ptr %2, align 8, !tbaa !13
  %3 = load ptr, ptr %2, align 8, !tbaa !13
  %4 = getelementptr inbounds nuw %struct.inst, ptr %3, i32 0, i32 7
  %5 = load ptr, ptr %4, align 8, !tbaa !36
  call void @jv_mem_free(ptr noundef %5)
  %6 = load ptr, ptr %2, align 8, !tbaa !13
  %7 = getelementptr inbounds nuw %struct.inst, ptr %6, i32 0, i32 12
  %8 = getelementptr inbounds nuw { ptr, ptr }, ptr %7, i32 0, i32 0
  %9 = load ptr, ptr %8, align 8
  %10 = getelementptr inbounds nuw { ptr, ptr }, ptr %7, i32 0, i32 1
  %11 = load ptr, ptr %10, align 8
  call void @block_free(ptr %9, ptr %11)
  %12 = load ptr, ptr %2, align 8, !tbaa !13
  %13 = getelementptr inbounds nuw %struct.inst, ptr %12, i32 0, i32 13
  %14 = getelementptr inbounds nuw { ptr, ptr }, ptr %13, i32 0, i32 0
  %15 = load ptr, ptr %14, align 8
  %16 = getelementptr inbounds nuw { ptr, ptr }, ptr %13, i32 0, i32 1
  %17 = load ptr, ptr %16, align 8
  call void @block_free(ptr %15, ptr %17)
  %18 = load ptr, ptr %2, align 8, !tbaa !13
  %19 = getelementptr inbounds nuw %struct.inst, ptr %18, i32 0, i32 4
  %20 = load ptr, ptr %19, align 8, !tbaa !27
  %21 = icmp ne ptr %20, null
  br i1 %21, label %22, label %26

22:                                               ; preds = %1
  %23 = load ptr, ptr %2, align 8, !tbaa !13
  %24 = getelementptr inbounds nuw %struct.inst, ptr %23, i32 0, i32 4
  %25 = load ptr, ptr %24, align 8, !tbaa !27
  call void @locfile_free(ptr noundef %25)
  br label %26

26:                                               ; preds = %22, %1
  %27 = load ptr, ptr %2, align 8, !tbaa !13
  %28 = getelementptr inbounds nuw %struct.inst, ptr %27, i32 0, i32 2
  %29 = load i32, ptr %28, align 8, !tbaa !33
  %30 = call ptr @opcode_describe(i32 noundef %29)
  %31 = getelementptr inbounds nuw %struct.opcode_description, ptr %30, i32 0, i32 2
  %32 = load i32, ptr %31, align 8, !tbaa !48
  %33 = and i32 %32, 2
  %34 = icmp ne i32 %33, 0
  br i1 %34, label %35, label %43

35:                                               ; preds = %26
  %36 = load ptr, ptr %2, align 8, !tbaa !13
  %37 = getelementptr inbounds nuw %struct.inst, ptr %36, i32 0, i32 3
  %38 = getelementptr inbounds nuw %struct.anon, ptr %37, i32 0, i32 2
  %39 = getelementptr inbounds nuw { i64, ptr }, ptr %38, i32 0, i32 0
  %40 = load i64, ptr %39, align 8
  %41 = getelementptr inbounds nuw { i64, ptr }, ptr %38, i32 0, i32 1
  %42 = load ptr, ptr %41, align 8
  call void @jv_free(i64 %40, ptr %42)
  br label %43

43:                                               ; preds = %35, %26
  %44 = load ptr, ptr %2, align 8, !tbaa !13
  call void @jv_mem_free(ptr noundef %44)
  ret void
}