; Function Attrs: nounwind uwtable
define internal fastcc void @inst_free(ptr noundef %0) unnamed_addr #1 {
  %2 = getelementptr inbounds nuw i8, ptr %0, i64 88
  %3 = load ptr, ptr %2, align 8, !tbaa !30
  tail call void @jv_mem_free(ptr noundef %3) #17
  %4 = getelementptr inbounds nuw i8, ptr %0, i64 112
  %5 = load ptr, ptr %4, align 8
  %.not.i12 = icmp eq ptr %5, null
  br i1 %.not.i12, label %block_free.exit, label %.lr.ph

.lr.ph:                                           ; preds = %1, %.lr.ph
  %.0.i13 = phi ptr [ %6, %.lr.ph ], [ %5, %1 ]
  %6 = load ptr, ptr %.0.i13, align 8, !tbaa !22
  tail call fastcc void @inst_free(ptr noundef nonnull %.0.i13)
  %.not.i = icmp eq ptr %6, null
  br i1 %.not.i, label %block_free.exit, label %.lr.ph, !llvm.loop !35

block_free.exit:                                  ; preds = %.lr.ph, %1
  %7 = getelementptr inbounds nuw i8, ptr %0, i64 128
  %8 = load ptr, ptr %7, align 8
  %.not.i1014 = icmp eq ptr %8, null
  br i1 %.not.i1014, label %block_free.exit11, label %.lr.ph16

.lr.ph16:                                         ; preds = %block_free.exit, %.lr.ph16
  %.0.i915 = phi ptr [ %9, %.lr.ph16 ], [ %8, %block_free.exit ]
  %9 = load ptr, ptr %.0.i915, align 8, !tbaa !22
  tail call fastcc void @inst_free(ptr noundef nonnull %.0.i915)
  %.not.i10 = icmp eq ptr %9, null
  br i1 %.not.i10, label %block_free.exit11, label %.lr.ph16, !llvm.loop !35

block_free.exit11:                                ; preds = %.lr.ph16, %block_free.exit
  %10 = getelementptr inbounds nuw i8, ptr %0, i64 64
  %11 = load ptr, ptr %10, align 8, !tbaa !21
  %.not = icmp eq ptr %11, null
  br i1 %.not, label %13, label %12

12:                                               ; preds = %block_free.exit11
  tail call void @locfile_free(ptr noundef nonnull %11) #17
  br label %13

13:                                               ; preds = %12, %block_free.exit11
  %14 = getelementptr inbounds nuw i8, ptr %0, i64 16
  %15 = load i32, ptr %14, align 8, !tbaa !25
  %16 = tail call ptr @opcode_describe(i32 noundef %15) #17
  %17 = getelementptr inbounds nuw i8, ptr %16, i64 16
  %18 = load i32, ptr %17, align 8, !tbaa !38
  %19 = and i32 %18, 2
  %.not8 = icmp eq i32 %19, 0
  br i1 %.not8, label %25, label %20

20:                                               ; preds = %13
  %21 = getelementptr inbounds nuw i8, ptr %0, i64 40
  %22 = load i64, ptr %21, align 8
  %23 = getelementptr inbounds nuw i8, ptr %0, i64 48
  %24 = load ptr, ptr %23, align 8
  tail call void @jv_free(i64 %22, ptr %24) #17
  br label %25

25:                                               ; preds = %20, %13
  tail call void @jv_mem_free(ptr noundef nonnull %0) #17
  ret void
}